0000000    3c  3d  3e  fe  2d  2b  c8  23  28  21  3f  52  54  4c  43  41
           <   =   >   þ   -   +   È   #   (   !   ?   R   T   L   C   A
0000010    50  45  47  42  46  f0  54  ff  4f  cb  53  cb  54  45  50  cb
           P   E   G   B   F   ð   T   ÿ   O   Ë   S   Ë   T   E   P   Ë
0000020    54  c3  48  45  4e  c3  22  24  ce  ce  cc  24  2c  c5  24  26
           T   Ã   H   E   N   Ã   "   $   Î   Î   Ì   $   ,   Å   $   &
0000030    3b  0d  2c  c3  c5  c2  3e  c7  3d  c7  c7  c7  3d  c7  c7  c8
           ;  cr   ,   Ã   Å   Â   >   Ç   =   Ç   Ç   Ç   =   Ç   Ç   È
0000040    52  c7  c7  4f  41  fe  24  c7  48  c9  45  4e  c9  4e  44  c7
           R   Ç   Ç   O   A   þ   $   Ç   H   É   E   N   É   N   D   Ç
0000050    c9  c9  c9  c9  4e  44  c9  4f  50  c9  4f  55  4e  54  c9  42
           É   É   É   É   N   D   É   O   P   É   O   U   N   T   É   B
0000060    53  c9  54  52  cf  58  54  cf  45  54  cf  47  45  54  cf  49
           S   É   T   R   Ï   X   T   Ï   E   T   Ï   G   E   T   Ï   I
0000070    4e  cf  4f  55  54  cf  c3  c3  52  49  4e  54  c3  4e  4c  55
           N   Ï   O   U   T   Ï   Ã   Ã   R   I   N   T   Ã   N   L   U
0000080    4e  49  47  52  46  21  3f  24  50  44  4c  53  42  2a  45  f0
           N   I   G   R   F   !   ?   $   P   D   L   S   B   *   E   ð
0000090    41  56  45  cf  45  57  c2  4f  cc  45  54  c3  49  4e  4b  c3
           A   V   E   Ï   E   W   Â   O   Ì   E   T   Ã   I   N   K   Ã
00000a0    49  53  54  ca  4f  41  44  ce  4e  54  49  4c  cc  45  58  54
           I   S   T   Ê   O   A   D   Î   N   T   I   L   Ì   E   X   T
00000b0    ca  46  c5  4e  50  55  54  cc  4f  53  55  42  cb  4f  54  4f
           Ê   F   Å   N   P   U   T   Ì   O   S   U   B   Ë   O   T   O
00000c0    cc  45  54  55  52  4e  cb  45  4d  c5  55  4e  f1  4f  52  cb
           Ì   E   T   U   R   N   Ë   E   M   Å   U   N   ñ   O   R   Ë
00000d0    4e  44  cd  47  45  54  cf  50  55  54  cf  48  55  54  cf  50
           N   D   Í   G   E   T   Ï   P   U   T   Ï   H   U   T   Ï   P
00000e0    55  54  cf  54  52  cf  55  54  cf  c3  c4  cd  c4  2c  fe  36
           U   T   Ï   T   R   Ï   U   T   Ï   Ã   Ä   Í   Ä   ,   þ   6
00000f0    3b  3c  c0  3f  06  dc  50  51  52  53  54  57  4a  5a  5f  62
           ;   <   À   ? ack   Ü   P   Q   R   S   T   W   J   Z   _   b
0000100    65  68  6b  6f  2e  18  ac  17  81  1c  be  17  17  17  a2  22
           e   h   k   o   . can   ¬ etb  81  fs   ¾ etb etb etb   ¢   "
0000110    1b  17  17  17  1b  29  28  b6  bf  b6  2a  b7  58  76  77  34
         esc etb etb etb esc   )   (   ¶   ¿   ¶   *   ·   X   v   w   4
0000120    34  7c  3f  4a  78  38  6d  3a  64  74  5b  3e  7b  82  c1  45
           4   |   ?   J   x   8   m   :   d   t   [   >   {  82   Á   E
0000130    22  31  40  4d  4d  42  53  15  d2  15  15  bd  45  45  14  0a
           "   1   @   M   M   B   S nak   Ò nak nak   ½   E   E dc4  nl
0000140    44  5f  4c  15  15  86  15  15  73  48  15  15  15  7a  15  15
           D   _   L nak nak  86 nak nak   s   H nak nak nak   z nak nak
0000150    02  15  15  29  15  15  28  15  15  66  15  15  15  5b  72  15
         stx nak nak   ) nak nak   ( nak nak   f nak nak nak   [   r nak
0000160    a6  15  15  15  a7  90  35  e3  8f  8f  8f  34  94  a0  a8  ad
           ¦ nak nak nak   §  90   5   ã  8f  8f  8f   4  94       ¨   ­
0000170    b1  bd  c1  cd  e9  ea  eb  78  97  99  d3  df  ec  d0  4b  8f
           ±   ½   Á   Í   é   ê   ë   x  97  99   Ó   ß   ì   Ð   K  8f
0000180    8f  8f  0a  8f  ad  ad  8f  f0  9c  8f  25  8f  8f  8f  b2  a4
          8f  8f  nl  8f   ­   ­  8f   ð  9c  8f   %  8f  8f  8f   ²   ¤
0000190    9c  8f  51  99  8f  8f  ed  8f  8f  8f  8f  d2  8f  8f  8f  cd
          9c  8f   Q  99  8f  8f   í  8f  8f  8f  8f   Ò  8f  8f  8f   Í
00001a0    b3  66  8f  8f  8f  8f  81  8f  8f  8f  8f  d2  8f  b8  8f  05
           ³   f  8f  8f  8f  8f  81  8f  8f  8f  8f   Ò  8f   ¸  8f enq
00001b0    ca  c7  8f  8f  8f  ec  8f  8f  75  8f  8f  41  8f  8f  57  8f
           Ê   Ç  8f  8f  8f   ì  8f  8f   u  8f  8f   A  8f  8f   W  8f
00001c0    8f  98  d7  8f  8f  e3  db  8f  8f  c5  90  8f  8f  b6  8f  8f
          8f  98   ×  8f  8f   ã   Û  8f  8f   Å  90  8f  8f   ¶  8f  8f
00001d0    8f  8f  e6  8f  47  8f  8f  95  ee  06  5c  0f  35  2d  2b  7c
          8f  8f   æ  8f   G  8f  8f  95   î ack   \  si   5   -   +   |
00001e0    3a  fe  2a  2f  25  21  3f  26  fe  29  ff  3d  ff  21  3f  24
           :   þ   *   /   %   !   ?   &   þ   )   ÿ   =   ÿ   !   ?   $
00001f0    ff  3d  21  3f  ff  27  22  fe  b7  9a  d3  ef  ef  13  5e  70
           ÿ   =   !   ?   ÿ   '   "   þ   ·  9a   Ó   ï   ï dc3   ^   p
0000200    b3  9c  7b  7b  78  78  78  78  ee  06  5c  5c  e5  75  7b  7b
           ³  9c   {   {   x   x   x   x   î ack   \   \   å   u   {   {
0000210    6f  7a  c7  c7  c7  c7  c7  c8  c8  c8  c8  c8  c8  c8  c2  c2
           o   z   Ç   Ç   Ç   Ç   Ç   È   È   È   È   È   È   È   Â   Â
0000220    c2  c2  c3  c4  cd  cd  c3  cd  cd  cd  c3  c3  20  3e  cf  84
           Â   Â   Ã   Ä   Í   Í   Ã   Í   Í   Í   Ã   Ã  sp   >   Ï  84
0000230    0f  a2  ed  a4  03  88  c8  b1  05  c9  20  f0  f9  84  5e  85
          si   ¢   í   ¤ etx  88   È   ± enq   É  sp   ð   ù  84   ^  85
0000240    52  e8  bd  ff  bf  30  24  c5  52  d0  f6  bd  ee  c0  aa  e8
           R   è   ½   ÿ   ¿   0   $   Å   R   Ð   ö   ½   î   À   ª   è
0000250    c8  bd  ff  bf  30  15  d1  05  f0  f5  b1  05  c9  2e  f0  04
           È   ½   ÿ   ¿   0 nak   Ñ enq   ð   õ   ± enq   É   .   ð eot
0000260    a4  5e  10  e7  e8  bd  ff  bf  10  fa  c8  c9  fe  b0  3b  85
           ¤   ^ dle   ç   è   ½   ÿ   ¿ dle   ú   È   É   þ   °   ;  85
0000270    53  bd  ee  c0  90  29  a6  04  60  a2  0e  a4  03  88  c8  b1
           S   ½   î   À  90   )   ¦ eot   `   ¢  so   ¤ etx  88   È   ±
0000280    05  c9  20  f0  f9  dd  dd  c1  f0  0c  85  52  e8  bd  dd  c1
         enq   É  sp   ð   ù   Ý   Ý   Á   ð  ff  85   R   è   ½   Ý   Á
0000290    30  16  c5  52  d0  f6  bd  12  c2  85  53  bd  f8  c1  c8  85
           0 syn   Å   R   Ð   ö   ½ dc2   Â  85   S   ½   ø   Á   È  85
00002a0    52  84  03  a6  04  6c  52  00  c9  fe  f0  ca  00  20  e4  c4
           R  84 etx   ¦ eot   l   R nul   É   þ   ð   Ê nul  sp   ä   Ä
00002b0    d0  04  a9  29  85  12  a9  0d  a4  12  84  0e  a0  00  84  0d
           Ð eot   ©   )  85 dc2   ©  cr   ¤ dc2  84  so     nul  84  cr
00002c0    91  0d  a9  ff  c8  91  0d  c8  84  0d  a9  08  8d  21  03  a9
          91  cr   ©   ÿ   È  91  cr   È  84  cr   ©  bs  8d   ! etx   ©
00002d0    3e  d8  20  0f  cd  a2  01  86  06  ca  86  05  86  01  86  02
           >   Ø  sp  si   Í   ¢ soh  86 ack   Ê  86 enq  86 soh  86 stx
00002e0    a9  d8  8d  02  02  a9  c9  8d  03  02  a9  e7  85  10  a9  c9
           ©   Ø  8d stx stx   ©   É  8d etx stx   ©   ç  85 dle   ©   É
00002f0    85  11  a2  ff  9a  a9  00  85  04  85  03  85  15  85  13  85
          85 dc1   ¢   ÿ  9a   © nul  85 eot  85 etx  85 nak  85 dc3  85
0000300    14  a2  34  9d  8c  03  ca  d0  fa  20  34  c4  b0  21  20  6a
         dc4   ¢   4  9d  8c etx   Ê   Ð   ú  sp   4   Ä   °   !  sp   j
0000310    c4  90  03  4c  c9  cd  a2  7d  4c  33  c2  20  34  c4  b0  0f
           Ä  90 etx   L   É   Í   ¢   }   L   3   Â  sp   4   Ä   °  si
0000320    a2  7f  4c  33  c2  20  34  c4  b0  05  a2  10  4c  7b  c2  a2
           ¢ del   L   3   Â  sp   4   Ä   ° enq   ¢ dle   L   {   Â   ¢
0000330    14  4c  7b  c2  38  66  0f  20  72  c3  a2  2e  4c  33  c2  20
         dc4   L   {   Â   8   f  si  sp   r   Ã   ¢   .   L   3   Â  sp
0000340    8b  c7  20  cb  c3  a5  0f  30  21  a2  00  86  27  a0  00  b9
          8b   Ç  sp   Ë   Ã   ¥  si   0   !   ¢ nul  86   '     nul   ¹
0000350    52  00  48  29  0f  95  45  68  4a  4a  4a  4a  e8  95  45  e8
           R nul   H   )  si  95   E   h   J   J   J   J   è  95   E   è
0000360    c8  c0  04  90  ea  20  c8  c5  30  cd  20  89  c5  30  c8  20
           È   À eot  90   ê  sp   È   Å   0   Í  sp  89   Å   0   È  sp
0000370    54  cd  a2  18  4c  7b  c2  20  4c  ca  b1  05  c8  c9  0d  f0
           T   Í   ¢ can   L   {   Â  sp   L   Ê   ± enq   È   É  cr   ð
0000380    1c  84  03  c9  22  d0  f0  b1  05  c9  22  d0  e5  c8  b0  e7
          fs  84 etx   É   "   Ð   ð   ± enq   É   "   Ð   å   È   °   ç
0000390    20  8b  c7  20  cb  c3  05  54  05  53  f0  0e  a0  00  b1  52
          sp  8b   Ç  sp   Ë   Ã enq   T enq   S   ð  so     nul   ±   R
00003a0    c9  0d  f0  93  20  4c  ca  c8  d0  f4  a5  52  20  4c  ca  4c
           É  cr   ð  93  sp   L   Ê   È   Ð   ô   ¥   R  sp   L   Ê   L
00003b0    37  c3  20  c8  c3  20  e4  c4  ad  22  03  ae  39  03  ac  3a
           7   Ã  sp   È   Ã  sp   ä   Ä   ­   " etx   ®   9 etx   ¬   :
00003c0    03  20  a5  c2  d8  4c  5b  c5  20  bc  c8  a0  52  ca  86  04
         etx  sp   ¥   Â   Ø   L   [   Å  sp   ¼   È       R   Ê  86 eot
00003d0    b5  16  99  00  00  b5  25  99  01  00  b5  34  99  02  00  b5
           µ syn  99 nul nul   µ   %  99 soh nul   µ   4  99 stx nul   µ
00003e0    43  99  03  00  60  20  e1  c4  20  2f  ca  4c  5b  c5  20  bc
           C  99 etx nul   `  sp   á   Ä  sp   /   Ê   L   [   Å  sp   ¼
00003f0    c8  20  93  ce  b5  26  c8  91  52  c8  b5  35  91  52  c8  b5
           È  sp  93   Î   µ   &   È  91   R   È   µ   5  91   R   È   µ
0000400    44  91  52  4c  5b  c5  20  bc  c8  20  93  ce  4c  5b  c5  a2
           D  91   R   L   [   Å  sp   ¼   È  sp  93   Î   L   [   Å   ¢
0000410    00  b1  05  9d  00  01  84  03  c8  e8  c9  0d  d0  f3  20  f7
         nul   ± enq  9d nul soh  84 etx   È   è   É  cr   Ð   ó  sp   ÷
0000420    ff  4c  58  c5  ad  00  d0  c9  aa  d0  38  4a  cd  01  d0  d0
           ÿ   L   X   Å   ­ nul   Ð   É   ª   Ð   8   J   Í soh   Ð   Ð
0000430    32  a4  5e  60  a4  03  10  03  c8  84  03  b1  05  c9  20  f0
           2   ¤   ^   `   ¤ etx dle etx   È  84 etx   ± enq   É  sp   ð
0000440    f7  c9  5b  b0  1e  e9  3f  90  1b  a6  04  95  16  c8  b1  05
           ÷   É   [   °  rs   é   ?  90 esc   ¦ eot  95 syn   È   ± enq
0000450    c9  2e  f0  0f  c9  5b  b0  04  c9  40  b0  07  e8  86  04  38
           É   .   ð  si   É   [   ° eot   É   @   ° bel   è  86 eot   8
0000460    84  03  60  18  60  20  34  c4  b0  bb  a2  00  a4  03  86  52
          84 etx   ` can   `  sp   4   Ä   °   »   ¢ nul   ¤ etx  86   R
0000470    86  53  86  54  86  55  88  c8  b1  05  38  e9  30  30  54  c9
          86   S  86   T  86   U  88   È   ± enq   8   é   0   0   T   É
0000480    0a  b0  50  a6  53  48  a5  55  48  a5  54  48  a5  52  0a  26
          nl   °   P   ¦   S   H   ¥   U   H   ¥   T   H   ¥   R  nl   &
0000490    53  26  54  26  55  30  d4  0a  26  53  26  54  26  55  30  cb
           S   &   T   &   U   0   Ô  nl   &   S   &   T   &   U   0   Ë
00004a0    65  52  85  52  8a  65  53  85  53  68  65  54  85  54  68  65
           e   R  85   R  8a   e   S  85   S   h   e   T  85   T   h   e
00004b0    55  06  52  26  53  26  54  2a  30  b1  85  55  68  65  52  85
           U ack   R   &   S   &   T   *   0   ±  85   U   h   e   R  85
00004c0    52  90  0c  e6  53  d0  08  e6  54  d0  04  e6  55  30  9c  a2
           R  90  ff   æ   S   Ð  bs   æ   T   Ð eot   æ   U   0  9c   ¢
00004d0    ff  d0  a4  8a  f0  8d  38  84  03  a0  52  4c  9f  c9  20  79
           ÿ   Ð   ¤  8a   ð  8d   8  84 etx       R   L  9f   É  sp   y
00004e0    c2  20  8b  c7  a4  03  88  c8  b1  05  c9  20  f0  f9  c9  3b
           Â  sp  8b   Ç   ¤ etx  88   È   ± enq   É  sp   ð   ù   É   ;
00004f0    f0  04  c9  0d  d0  66  18  98  65  05  85  05  90  02  e6  06
           ð eot   É  cr   Ð   f can  98   e enq  85 enq  90 stx   æ ack
0000500    a0  01  84  03  ad  01  b0  29  20  f0  3c  60  20  e4  c4  88
             soh  84 etx   ­ soh   °   )  sp   ð   <   `  sp   ä   Ä  88
0000510    b1  05  c9  3b  f0  f5  a5  06  c9  01  f0  7a  c8  b1  05  30
           ± enq   É   ;   ð   õ   ¥ ack   É soh   ð   z   È   ± enq   0
0000520    3b  85  02  c8  b1  05  85  01  c8  b1  05  88  c9  61  90  c7
           ;  85 stx   È   ± enq  85 soh   È   ± enq  88   É   a  90   Ç
0000530    e9  61  c9  1b  b0  c0  c8  0a  aa  20  f6  c4  a5  05  9d  8d
           é   a   É esc   °   À   È  nl   ª  sp   ö   Ä   ¥ enq  9d  8d
0000540    03  a5  06  9d  8e  03  60  4c  cf  c2  88  20  f6  c4  d0  0b
         etx   ¥ ack  9d  8e etx   `   L   Ï   Â  88  sp   ö   Ä   Ð  vt
0000550    20  24  c4  90  03  6c  02  d0  20  e4  c4  a0  00  b1  05  c9
          sp   $   Ä  90 etx   l stx   Ð  sp   ä   Ä     nul   ± enq   É
0000560    3b  d0  1a  4c  1b  c3  20  0c  c7  ca  86  04  b5  16  f0  05
           ;   Ð sub   L esc   Ã  sp  ff   Ç   Ê  86 eot   µ syn   ð enq
0000570    a2  20  4c  33  c2  a9  0d  88  c8  d1  05  d0  fb  a5  06  c9
           ¢  sp   L   3   Â   ©  cr  88   È   Ñ enq   Ð   û   ¥ ack   É
0000580    01  f0  c4  20  1c  c5  4c  1b  c3  a5  43  85  27  10  04  e8
         soh   ð   Ä  sp  fs   Å   L esc   Ã   ¥   C  85   ' dle eot   è
0000590    20  c4  c8  a2  09  a9  00  95  45  38  a5  16  fd  08  c6  48
          sp   Ä   È   ¢  ht   © nul  95   E   8   ¥ syn   ý  bs   Æ   H
00005a0    a5  25  fd  10  c6  48  a5  34  fd  1a  c6  a8  a5  43  fd  24
           ¥   %   ý dle   Æ   H   ¥   4   ý sub   Æ   ¨   ¥   C   ý   $
00005b0    c6  90  0e  85  43  84  34  68  85  25  68  85  16  f6  45  d0
           Æ  90  so  85   C  84   4   h  85   %   h  85 syn   ö   E   Ð
00005c0    d8  68  68  ca  10  cf  a2  0a  ca  f0  04  b5  45  f0  f9  86
           Ø   h   h   Ê dle   Ï   ¢  nl   Ê   ð eot   µ   E   ð   ù  86
00005d0    52  24  27  10  02  e6  52  38  ad  21  03  f0  02  e9  01  e5
           R   $   ' dle stx   æ   R   8   ­   ! etx   ð stx   é soh   å
00005e0    52  f0  0b  90  09  a8  a9  20  20  4c  ca  88  d0  f8  24  27
           R   ð  vt  90  ht   ¨   ©  sp  sp   L   Ê  88   Ð   ø   $   '
00005f0    10  05  a9  2d  20  4c  ca  b5  45  c9  0a  90  02  69  06  69
         dle enq   ©   -  sp   L   Ê   µ   E   É  nl  90 stx   i ack   i
0000600    30  20  4c  ca  ca  10  f0  60  01  0a  64  e8  10  a0  40  80
           0  sp   L   Ê   Ê dle   ð   ` soh  nl   d   è dle       @  80
0000610    00  00  00  03  27  86  42  96  e1  ca  00  00  00  00  00  01
         nul nul nul etx   '  86   B  96   á   Ê nul nul nul nul nul soh
0000620    0f  98  f5  9a  00  00  00  00  00  00  00  00  05  3b  c6  04
          si  98   õ  9a nul nul nul nul nul nul nul nul enq   ;   Æ eot
0000630    a6  04  a0  00  84  58  a5  12  85  59  88  a9  0d  c8  d1  58
           ¦ eot     nul  84   X   ¥ dc2  85   Y  88   ©  cr   È   Ñ   X
0000640    d0  fb  20  a1  ce  b1  58  c8  d5  25  90  ef  d0  12  b1  58
           Ð   û  sp   ¡   Î   ±   X   È   Õ   %  90   ï   Ð dc2   ±   X
0000650    d5  16  90  e7  d0  0a  85  01  b5  25  85  02  20  a1  ce  18
           Õ syn  90   ç   Ð  nl  85 soh   µ   %  85 stx  sp   ¡   Î can
0000660    60  20  bc  c8  b5  42  55  41  85  52  20  05  c9  a0  53  20
           `  sp   ¼   È   µ   B   U   A  85   R  sp enq   É       S  sp
0000670    cd  c3  b5  42  95  43  20  07  c9  a0  57  20  cd  c3  a0  00
           Í   Ã   µ   B  95   C  sp bel   É       W  sp   Í   Ã     nul
0000680    84  5b  84  5c  84  5d  84  5e  60  20  61  c6  a5  54  20  05
          84   [  84   \  84   ]  84   ^   `  sp   a   Æ   ¥   T  sp enq
0000690    c7  f0  ec  a0  20  88  f0  41  06  57  26  58  26  59  26  5a
           Ç   ð   ì      sp  88   ð   A ack   W   &   X   &   Y   &   Z
00006a0    10  f3  26  57  26  58  26  59  26  5a  26  5b  26  5c  26  5d
         dle   ó   &   W   &   X   &   Y   &   Z   &   [   &   \   &   ]
00006b0    26  5e  38  a5  5b  e5  53  48  a5  5c  e5  54  48  a5  5d  e5
           &   ^   8   ¥   [   å   S   H   ¥   \   å   T   H   ¥   ]   å
00006c0    55  aa  a5  5e  e5  56  90  0c  85  5e  86  5d  68  85  5c  68
           U   ª   ¥   ^   å   V  90  ff  85   ^  86   ]   h  85   \   h
00006d0    85  5b  b0  02  68  68  88  d0  c9  60  20  8b  c7  ca  86  04
          85   [   ° stx   h   h  88   Ð   É   `  sp  8b   Ç   Ê  86 eot
00006e0    b5  42  49  80  85  52  b5  43  49  80  85  54  a0  00  38  b5
           µ   B   I  80  85   R   µ   C   I  80  85   T     nul   8   µ
00006f0    15  f5  16  85  53  b5  24  f5  25  85  55  b5  33  f5  34  85
         nak   õ syn  85   S   µ   $   õ   %  85   U   µ   3   õ   4  85
0000700    56  a5  52  e5  54  05  53  05  55  05  56  60  20  2c  c7  a2
           V   ¥   R   å   T enq   S enq   U enq   V   `  sp   ,   Ç   ¢
0000710    43  4c  33  c2  20  2c  c7  b5  14  35  15  95  14  c6  04  4c
           C   L   3   Â  sp   ,   Ç   µ dc4   5 nak  95 dc4   Æ eot   L
0000720    0f  c7  20  2c  c7  b5  14  15  15  4c  1b  c7  a2  46  4c  33
          si   Ç  sp   ,   Ç   µ dc4 nak nak   L esc   Ç   ¢   F   L   3
0000730    c2  20  8b  c7  20  ae  ce  b5  15  85  54  b5  24  85  55  a0
           Â  sp  8b   Ç  sp   ®   Î   µ nak  85   T   µ   $  85   U    
0000740    ff  c8  b1  54  d1  52  d0  07  49  0d  d0  f5  a8  f0  11  a0
           ÿ   È   ±   T   Ñ   R   Ð bel   I  cr   Ð   õ   ¨   ð dc1    
0000750    00  f0  0e  20  8b  c7  a2  00  4c  33  c2  20  da  c6  d0  01
         nul   ð  so  sp  8b   Ç   ¢ nul   L   3   Â  sp   Ú   Æ   Ð soh
0000760    c8  94  15  60  20  da  c6  f0  f7  90  f5  b0  f4  20  da  c6
           È  94 nak   `  sp   Ú   Æ   ð   ÷  90   õ   °   ô  sp   Ú   Æ
0000770    d0  ee  f0  ed  20  da  c6  90  e7  b0  e6  20  da  c6  b0  e0
           Ð   î   ð   í  sp   Ú   Æ  90   ç   °   æ  sp   Ú   Æ   °   à
0000780    90  df  20  da  c6  f0  da  b0  d7  90  d6  20  0b  c8  4c  95
          90   ß  sp   Ú   Æ   ð   Ú   °   ×  90   Ö  sp  vt   È   L  95
0000790    c7  95  41  c6  04  a2  00  4c  7b  c2  20  0b  c8  18  b5  14
           Ç  95   A   Æ eot   ¢ nul   L   {   Â  sp  vt   È can   µ dc4
00007a0    75  15  95  14  b5  23  75  24  95  23  b5  32  75  33  95  32
           u nak  95 dc4   µ   #   u   $  95   #   µ   2   u   3  95   2
00007b0    b5  41  75  42  4c  91  c7  20  0b  c8  b5  14  f5  15  95  14
           µ   A   u   B   L  91   Ç  sp  vt   È   µ dc4   õ nak  95 dc4
00007c0    b5  23  f5  24  95  23  b5  32  f5  33  95  32  b5  41  f5  42
           µ   #   õ   $  95   #   µ   2   õ   3  95   2   µ   A   õ   B
00007d0    4c  91  c7  20  0b  c8  b5  14  15  15  95  14  b5  23  15  24
           L  91   Ç  sp  vt   È   µ dc4 nak nak  95 dc4   µ   # nak   $
00007e0    95  23  b5  32  15  33  95  32  b5  41  15  42  4c  91  c7  20
          95   #   µ   2 nak   3  95   2   µ   A nak   B   L  91   Ç  sp
00007f0    0b  c8  b5  14  55  15  95  14  b5  23  55  24  95  23  b5  32
          vt   È   µ dc4   U nak  95 dc4   µ   #   U   $  95   #   µ   2
0000800    55  33  95  32  b5  41  55  42  4c  91  c7  20  bc  c8  a2  05
           U   3  95   2   µ   A   U   B   L  91   Ç  sp   ¼   È   ¢ enq
0000810    4c  7b  c2  20  61  c6  46  5a  66  59  66  58  66  57  90  19
           L   {   Â  sp   a   Æ   F   Z   f   Y   f   X   f   W  90  em
0000820    18  98  65  53  a8  a5  5c  65  54  85  5c  a5  5d  65  55  85
         can  98   e   S   ¨   ¥   \   e   T  85   \   ¥   ]   e   U  85
0000830    5d  a5  5e  65  56  29  7f  85  5e  06  53  26  54  26  55  26
           ]   ¥   ^   e   V   ) del  85   ^ ack   S   &   T   &   U   &
0000840    56  a5  57  05  58  05  59  05  5a  d0  cb  84  5b  a5  52  08
           V   ¥   W enq   X enq   Y enq   Z   Ð   Ë  84   [   ¥   R  bs
0000850    a0  5b  20  9f  c9  28  10  03  20  c4  c8  4c  0e  c8  20  89
               [  sp  9f   É   ( dle etx  sp   Ä   È   L  so   È  sp  89
0000860    c6  26  57  26  58  26  59  26  5a  24  52  08  a0  57  d0  e2
           Æ   &   W   &   X   &   Y   &   Z   $   R  bs       W   Ð   â
0000870    20  89  c6  a6  04  b5  44  08  4c  50  c8  20  bc  c8  ca  86
          sp  89   Æ   ¦ eot   µ   D  bs   L   P   È  sp   ¼   È   Ê  86
0000880    04  b5  15  35  16  95  15  b5  24  35  25  95  24  b5  33  35
         eot   µ nak   5 syn  95 nak   µ   $   5   %  95   $   µ   3   5
0000890    34  95  33  b5  42  35  43  95  42  4c  0e  c8  20  a2  c8  4c
           4  95   3   µ   B   5   C  95   B   L  so   È  sp   ¢   È   L
00008a0    0e  c8  20  bc  c8  18  b5  15  75  14  a8  b5  24  75  23  ca
          so   È  sp   ¼   È can   µ nak   u dc4   ¨   µ   $   u   #   Ê
00008b0    4c  53  c9  20  a2  c8  20  62  c9  4c  0e  c8  a2  04  4c  33
           L   S   É  sp   ¢   È  sp   b   É   L  so   È   ¢ eot   L   3
00008c0    c2  20  dc  c8  38  a9  00  a8  f5  15  95  15  98  f5  24  95
           Â  sp   Ü   È   8   © nul   ¨   õ nak  95 nak  98   õ   $  95
00008d0    24  98  f5  33  95  33  98  f5  42  95  42  60  20  34  c4  90
           $  98   õ   3  95   3  98   õ   B  95   B   `  sp   4   Ä  90
00008e0    17  b4  15  b9  21  03  95  15  b9  57  03  95  33  b9  3c  03
         etb   ´ nak   ¹   ! etx  95 nak   ¹   W etx  95   3   ¹   < etx
00008f0    95  24  b9  72  03  95  42  60  20  6a  c4  b0  fa  a2  07  4c
          95   $   ¹   r etx  95   B   `  sp   j   Ä   °   ú   ¢ bel   L
0000900    33  c2  20  bc  c8  b5  42  30  bb  60  a2  00  86  52  86  53
           3   Â  sp   ¼   È   µ   B   0   »   `   ¢ nul  86   R  86   S
0000910    86  54  86  55  88  c8  b1  05  c9  30  90  22  c9  3a  90  0a
          86   T  86   U  88   È   ± enq   É   0  90   "   É   :  90  nl
0000920    e9  37  c9  0a  90  18  c9  10  b0  14  0a  0a  0a  0a  a2  03
           é   7   É  nl  90 can   É dle   ° dc4  nl  nl  nl  nl   ¢ etx
0000930    0a  26  52  26  53  26  54  26  55  ca  10  f4  30  d7  8a  10
          nl   &   R   &   S   &   T   &   U   Ê dle   ô   0   ×  8a dle
0000940    18  4c  d6  c4  20  0c  c7  a2  0c  4c  7b  c2  20  bc  c8  b4
         can   L   Ö   Ä  sp  ff   Ç   ¢  ff   L   {   Â  sp   ¼   È   ´
0000950    15  b5  24  85  53  84  52  ca  a0  00  b1  52  4c  7c  c9  20
         nak   µ   $  85   S  84   R   Ê     nul   ±   R   L   |   É  sp
0000960    4c  c9  a0  01  b1  52  95  24  c8  b1  52  95  33  c8  b1  52
           L   É     soh   ±   R  95   $   È   ±   R  95   3   È   ±   R
0000970    95  42  60  a0  0d  20  a1  c9  f0  07  a5  07  20  b3  c9  95
          95   B   `      cr  sp   ¡   É   ð bel   ¥ bel  sp   ³   É  95
0000980    24  95  33  95  42  60  a0  20  a5  0a  4a  4a  4a  45  0c  6a
           $  95   3  95   B   `      sp   ¥  nl   J   J   J   E  ff   j
0000990    26  08  26  09  26  0a  26  0b  26  0c  88  d0  eb  a0  08  a6
           &  bs   &  ht   &  nl   &  vt   &  ff  88   Ð   ë      bs   ¦
00009a0    04  b9  01  00  95  25  b9  02  00  95  34  b9  03  00  95  43
         eot   ¹ soh nul  95   %   ¹ stx nul  95   4   ¹ etx nul  95   C
00009b0    b9  00  00  95  16  e8  86  04  a4  03  a9  00  60  20  bc  c8
           ¹ nul nul  95 syn   è  86 eot   ¤ etx   © nul   `  sp   ¼   È
00009c0    20  cb  c3  a0  00  a9  0d  d1  52  f0  03  c8  d0  f9  98  4c
          sp   Ë   Ã     nul   ©  cr   Ñ   R   ð etx   È   Ð   ù  98   L
00009d0    7c  c9  20  b1  ce  4c  58  c9  68  68  85  00  a5  10  85  05
           |   É  sp   ±   Î   L   X   É   h   h  85 nul   ¥ dle  85 enq
00009e0    a5  11  85  06  4c  f2  c2  40  3d  31  3b  50  2e  24  36  24
           ¥ dc1  85 ack   L   ò   Â   @   =   1   ;   P   .   $   6   $
00009f0    37  27  22  45  52  52  4f  52  20  22  3f  30  3b  40  3d  38
           7   '   "   E   R   R   O   R  sp   "   ?   0   ;   @   =   8
0000a00    3b  49  46  3f  31  7c  3f  32  50  2e  22  20  4c  49  4e  45
           ;   I   F   ?   1   |   ?   2   P   .   "  sp   L   I   N   E
0000a10    22  21  31  26  20  23  46  46  46  46  0d  00  00  50  2e  27
           "   !   1   &  sp   #   F   F   F   F  cr nul nul   P   .   '
0000a20    3b  45  2e  0d  20  24  c4  90  f2  6c  04  d0  20  8b  c7  a6
           ;   E   .  cr  sp   $   Ä  90   ò   l eot   Ð  sp  8b   Ç   ¦
0000a30    04  ca  ca  86  04  b4  16  b5  17  99  21  03  b5  26  99  3c
         eot   Ê   Ê  86 eot   ´ syn   µ etb  99   ! etx   µ   &  99   <
0000a40    03  b5  35  99  57  03  b5  44  99  72  03  60  e6  07  6c  08
         etx   µ   5  99   W etx   µ   D  99   r etx   `   æ bel   l  bs
0000a50    02  a9  00  20  7c  c9  a9  ff  20  7c  c9  85  04  a0  7f  84
         stx   © nul  sp   |   É   ©   ÿ  sp   |   É  85 eot     del  84
0000a60    26  20  65  c4  90  52  20  31  c2  b0  58  20  65  c4  a2  01
           &  sp   e   Ä  90   R  sp   1   Â   °   X  sp   e   Ä   ¢ soh
0000a70    86  04  20  e4  c4  20  2e  c6  90  30  88  b0  21  a9  05  8d
          86 eot  sp   ä   Ä  sp   .   Æ  90   0  88   °   !   © enq  8d
0000a80    21  03  20  89  c5  a9  08  8d  21  03  a4  03  b1  58  c9  0d
           ! etx  sp  89   Å   ©  bs  8d   ! etx   ¤ etx   ±   X   É  cr
0000a90    f0  06  20  4c  ca  c8  d0  f4  20  54  cd  20  a1  ce  b1  58
           ð ack  sp   L   Ê   È   Ð   ô  sp   T   Í  sp   ¡   Î   ±   X
0000aa0    85  25  c8  b1  58  85  16  c8  84  03  a5  16  18  e5  17  a5
          85   %   È   ±   X  85 syn   È  84 etx   ¥ syn can   å etb   ¥
0000ab0    25  e5  26  90  c8  4c  cf  c2  20  31  c2  e6  04  20  65  c4
           %   å   &  90   È   L   Ï   Â  sp   1   Â   æ eot  sp   e   Ä
0000ac0    4c  6e  ca  a5  16  a4  25  85  17  84  26  b0  a1  20  34  c4
           L   n   Ê   ¥ syn   ¤   %  85 etb  84   &   °   ¡  sp   4   Ä
0000ad0    a4  15  f0  10  90  0f  c6  04  b5  15  d9  3f  02  f0  06  88
           ¤ nak   ð dle  90  si   Æ eot   µ nak   Ù   ? stx   ð ack  88
0000ae0    84  15  d0  f6  00  be  3f  02  18  bd  21  03  79  4a  02  9d
          84 nak   Ð   ö nul   ¾   ? stx can   ½   ! etx   y   J stx  9d
0000af0    21  03  85  52  bd  3c  03  79  55  02  9d  3c  03  85  53  bd
           ! etx  85   R   ½   < etx   y   U stx  9d   < etx  85   S   ½
0000b00    57  03  79  60  02  9d  57  03  85  54  bd  72  03  79  6b  02
           W etx   y   ` stx  9d   W etx  85   T   ½   r etx   y   k stx
0000b10    9d  72  03  aa  a5  52  38  f9  76  02  85  52  a5  53  f9  81
          9d   r etx   ª   ¥   R   8   ù   v stx  85   R   ¥   S   ù  81
0000b20    02  85  53  a5  54  f9  8c  02  85  54  8a  f9  97  02  05  52
         stx  85   S   ¥   T   ù  8c stx  85   T  8a   ù  97 stx enq   R
0000b30    05  53  05  54  f0  0f  8a  59  6b  02  59  97  02  10  04  b0
         enq   S enq   T   ð  si  8a   Y   k stx   Y  97 stx dle eot   °
0000b40    04  90  0f  b0  0d  b9  a2  02  85  05  b9  ad  02  85  06  4c
         eot  90  si   °  cr   ¹   ¢ stx  85 enq   ¹   ­ stx  85 ack   L
0000b50    ff  cb  c6  15  4c  58  c5  20  34  c4  90  11  20  79  c2  20
           ÿ   Ë   Æ nak   L   X   Å  sp   4   Ä  90 dc1  sp   y   Â  sp
0000b60    2c  ca  98  a4  15  c0  0b  b0  04  99  40  02  a9  00  99  6c
           ,   Ê  98   ¤ nak   À  vt   ° eot  99   @ stx   © nul  99   l
0000b70    02  99  61  02  99  56  02  a9  01  99  4b  02  a2  16  4c  33
         stx  99   a stx  99   V stx   © soh  99   K stx   ¢ syn   L   3
0000b80    c2  20  8b  c7  a4  15  ca  86  04  b5  16  99  77  02  b5  25
           Â  sp  8b   Ç   ¤ nak   Ê  86 eot   µ syn  99   w stx   µ   %
0000b90    99  82  02  b5  34  99  8d  02  b5  43  99  98  02  a2  1a  4c
          99  82 stx   µ   4  99  8d stx   µ   C  99  98 stx   ¢ sub   L
0000ba0    33  c2  20  8b  c7  a4  15  ca  86  04  b5  16  99  4b  02  b5
           3   Â  sp  8b   Ç   ¤ nak   Ê  86 eot   µ syn  99   K stx   µ
0000bb0    25  99  56  02  b5  34  99  61  02  b5  43  99  6c  02  20  0c
           %  99   V stx   µ   4  99   a stx   µ   C  99   l stx  sp  ff
0000bc0    c5  a4  15  a5  05  99  a3  02  a5  06  99  ae  02  e6  15  4c
           Å   ¤ nak   ¥ enq  99   £ stx   ¥ ack  99   ® stx   æ nak   L
0000bd0    1b  c3  20  1f  cc  20  0c  c5  a4  14  c0  0e  b0  22  a5  05
         esc   Ã  sp  us   Ì  sp  ff   Å   ¤ dc4   À  so   °   "   ¥ enq
0000be0    99  cf  02  a5  06  99  dd  02  e6  14  90  1f  20  e4  c4  a4
          99   Ï stx   ¥ ack  99   Ý stx   æ dc4  90  us  sp   ä   Ä   ¤
0000bf0    14  f0  2a  c6  14  b9  ce  02  85  05  b9  dc  02  85  06  20
         dc4   ð   *   Æ dc4   ¹   Î stx  85 enq   ¹   Ü stx  85 ack  sp
0000c00    00  c5  4c  1b  c3  20  1f  cc  20  e4  c4  a5  57  d0  05  20
         nul   Å   L esc   Ã  sp  us   Ì  sp   ä   Ä   ¥   W   Ð enq  sp
0000c10    2e  c6  b0  69  a4  58  a5  59  84  05  4c  fd  cb  00  c8  b1
           .   Æ   °   i   ¤   X   ¥   Y  84 enq   L   ý   Ë nul   È   ±
0000c20    05  c9  20  f0  f9  c9  61  90  50  85  57  e9  61  c9  1b  b0
         enq   É  sp   ð   ù   É   a  90   P  85   W   é   a   É esc   °
0000c30    48  0a  aa  bd  8d  03  85  58  20  f6  c4  bd  8e  03  85  59
           H  nl   ª   ½  8d etx  85   X  sp   ö   Ä   ½  8e etx  85   Y
0000c40    05  58  d0  34  a8  a5  12  85  59  88  a9  0d  c8  d1  58  d0
         enq   X   Ð   4   ¨   ¥ dc2  85   Y  88   ©  cr   È   Ñ   X   Ð
0000c50    fb  c8  b1  58  30  45  85  02  c8  b1  58  85  01  c8  b1  58
           û   È   ±   X   0   E  85 stx   È   ±   X  85 soh   È   ±   X
0000c60    88  c5  57  f0  06  20  a1  ce  4c  4a  cc  20  a2  ce  a5  58
          88   Å   W   ð ack  sp   ¡   Î   L   J   Ì  sp   ¢   Î   ¥   X
0000c70    9d  8d  03  a5  59  9d  8e  03  60  20  bc  c8  a9  00  85  57
          9d  8d etx   ¥   Y  9d  8e etx   `  sp   ¼   È   © nul  85   W
0000c80    60  20  72  c3  20  34  c4  b0  05  a2  2b  4c  33  c2  20  09
           `  sp   r   Ã  sp   4   Ä   ° enq   ¢   +   L   3   Â  sp  ht
0000c90    cd  a5  05  48  a5  06  48  a5  03  48  a0  00  84  03  c8  84
           Í   ¥ enq   H   ¥ ack   H   ¥ etx   H     nul  84 etx   È  84
0000ca0    06  a0  40  84  05  20  2c  ca  68  85  03  68  85  06  68  85
         ack       @  84 enq  sp   ,   Ê   h  85 etx   h  85 ack   h  85
0000cb0    05  a2  2c  4c  33  c2  20  8b  c7  a0  54  20  cd  c3  20  09
         enq   ¢   ,   L   3   Â  sp  8b   Ç       T  sp   Í   Ã  sp  ht
0000cc0    cd  a2  40  a0  00  bd  00  01  91  54  c9  0d  f0  b3  e8  c8
           Í   ¢   @     nul   ½ nul soh  91   T   É  cr   ð   ³   è   È
0000cd0    d0  f3  20  0c  c7  a4  13  f0  eb  ca  86  04  b5  16  f0  05
           Ð   ó  sp  ff   Ç   ¤ dc3   ð   ë   Ê  86 eot   µ syn   ð enq
0000ce0    c6  13  4c  58  c5  b9  b8  02  85  05  b9  c3  02  4c  fd  cb
           Æ dc3   L   X   Å   ¹   ¸ stx  85 enq   ¹   Ã stx   L   ý   Ë
0000cf0    a6  13  e0  0b  b0  1a  88  20  f6  c4  a5  05  9d  b9  02  a5
           ¦ dc3   à  vt   ° sub  88  sp   ö   Ä   ¥ enq  9d   ¹ stx   ¥
0000d00    06  9d  c4  02  e6  13  4c  1b  c3  a9  3f  a0  40  d0  02  a0
         ack  9d   Ä stx   æ dc3   L esc   Ã   ©   ?       @   Ð stx    
0000d10    00  20  4c  ca  84  52  a4  52  20  e6  ff  c9  7f  d0  07  88
         nul  sp   L   Ê  84   R   ¤   R  sp   æ   ÿ   É del   Ð bel  88
0000d20    c4  52  10  f4  30  f0  c9  18  d0  06  20  54  cd  4c  16  cd
           Ä   R dle   ô   0   ð   É can   Ð ack  sp   T   Í   L syn   Í
0000d30    c9  1b  d0  03  4c  cf  c2  99  00  01  c9  0d  f0  19  c8  98
           É esc   Ð etx   L   Ï   Â  99 nul soh   É  cr   ð  em   È  98
0000d40    38  e5  52  c9  40  90  d1  20  e3  ff  c9  7f  d0  f9  20  f4
           8   å   R   É   @  90   Ñ  sp   ã   ÿ   É del   Ð   ù  sp   ô
0000d50    ff  4c  1f  cd  20  ed  ff  a9  00  85  07  60  20  8b  c7  20
           ÿ   L  us   Í  sp   í   ÿ   © nul  85 bel   `  sp  8b   Ç  sp
0000d60    ae  ce  a0  54  20  cd  c3  a0  ff  c8  b1  52  91  54  c9  0d
           ®   Î       T  sp   Í   Ã       ÿ   È   ±   R  91   T   É  cr
0000d70    d0  f7  4c  58  c5  20  81  cd  4c  f1  c3  20  81  cd  4c  09
           Ð   ÷   L   X   Å  sp  81   Í   L   ñ   Ã  sp  81   Í   L  ht
0000d80    c4  20  e1  c8  20  bc  c8  ca  18  b5  16  75  15  95  15  b5
           Ä  sp   á   È  sp   ¼   È   Ê can   µ syn   u nak  95 nak   µ
0000d90    25  75  24  95  24  86  04  60  20  e4  c4  a5  12  85  0e  a0
           %   u   $  95   $  86 eot   `  sp   ä   Ä   ¥ dc2  85  so    
0000da0    00  84  0d  88  c8  b1  0d  c9  0d  d0  f9  20  bc  cd  b1  0d
         nul  84  cr  88   È   ±  cr   É  cr   Ð   ù  sp   ¼   Í   ±  cr
0000db0    30  03  c8  d0  ef  c8  20  bc  cd  4c  cf  c2  18  98  65  0d
           0 etx   È   Ð   ï   È  sp   ¼   Í   L   Ï   Â can  98   e  cr
0000dc0    85  0d  90  02  e6  0e  a0  01  60  84  56  20  2e  c6  b0  48
          85  cr  90 stx   æ  so     soh   `  84   V  sp   .   Æ   °   H
0000dd0    a5  58  85  52  e9  01  85  58  85  0d  a5  59  85  53  e9  00
           ¥   X  85   R   é soh  85   X  85  cr   ¥   Y  85   S   é nul
0000de0    85  0e  85  59  a9  0d  c8  d1  52  d0  fb  18  98  65  52  85
          85  so  85   Y   ©  cr   È   Ñ   R   Ð   û can  98   e   R  85
0000df0    52  90  02  e6  53  a0  00  b1  52  91  0d  c9  0d  f0  09  c8
           R  90 stx   æ   S     nul   ±   R  91  cr   É  cr   ð  ht   È
0000e00    d0  f5  e6  53  e6  0e  d0  ef  c8  d0  04  e6  53  e6  0e  b1
           Ð   õ   æ   S   æ  so   Ð   ï   È   Ð eot   æ   S   æ  so   ±
0000e10    52  91  0d  10  ea  20  bd  cd  a0  01  84  57  88  a9  0d  d1
           R  91  cr dle   ê  sp   ½   Í     soh  84   W  88   ©  cr   Ñ
0000e20    56  f0  5d  c8  d1  56  d0  fb  c8  c8  a5  0d  85  54  a5  0e
           V   ð   ]   È   Ñ   V   Ð   û   È   È   ¥  cr  85   T   ¥  so
0000e30    85  55  20  bd  cd  85  52  a5  0e  85  53  88  a9  55  91  0d
          85   U  sp   ½   Í  85   R   ¥  so  85   S  88   ©   U  91  cr
0000e40    d1  0d  d0  b2  0a  91  0d  d1  0d  d0  ab  b1  54  91  52  98
           Ñ  cr   Ð   ²  nl  91  cr   Ñ  cr   Ð   «   ±   T  91   R  98
0000e50    d0  04  c6  55  c6  53  88  98  65  54  a6  55  90  01  e8  c5
           Ð eot   Æ   U   Æ   S  88  98   e   T   ¦   U  90 soh   è   Å
0000e60    58  8a  e5  59  b0  e5  a0  01  a5  25  91  58  c8  a5  16  91
           X  8a   å   Y   °   å     soh   ¥   %  91   X   È   ¥ syn  91
0000e70    58  38  20  a2  ce  a0  ff  c8  b1  56  91  58  c9  0d  d0  f7
           X   8  sp   ¢   Î       ÿ   È   ±   V  91   X   É  cr   Ð   ÷
0000e80    4c  cf  c2  20  e4  c4  a0  00  84  05  84  03  a5  12  85  06
           L   Ï   Â  sp   ä   Ä     nul  84 enq  84 etx   ¥ dc2  85 ack
0000e90    4c  5b  c5  20  de  c4  ca  20  cb  c3  a0  00  b5  17  91  52
           L   [   Å  sp   Þ   Ä   Ê  sp   Ë   Ã     nul   µ etb  91   R
0000ea0    60  18  98  65  58  85  58  90  02  e6  59  4c  00  c5  20  79
           ` can  98   e   X  85   X  90 stx   æ   Y   L nul   Å  sp   y
0000eb0    c2  a2  26  4c  33  c2  20  8b  c7  20  cb  c3  a4  03  60  20
           Â   ¢   &   L   3   Â  sp  8b   Ç  sp   Ë   Ã   ¤ etx   `  sp
0000ec0    f6  c4  84  53  88  a2  00  b1  05  c9  0d  f0  f9  9d  40  01
           ö   Ä  84   S  88   ¢ nul   ± enq   É  cr   ð   ù  9d   @ soh
0000ed0    e8  c8  c9  22  d0  f1  b1  05  c9  22  f0  0e  a9  0d  9d  3f
           è   È   É   "   Ð   ñ   ± enq   É   "   ð  so   ©  cr  9d   ?
0000ee0    01  84  03  a9  40  85  52  a6  04  60  c8  b0  da  20  fa  ce
         soh  84 etx   ©   @  85   R   ¦ eot   `   È   °   Ú  sp   ú   Î
0000ef0    88  84  56  38  20  e0  ff  4c  9b  cd  20  b1  ce  20  e4  c4
          88  84   V   8  sp   à   ÿ   L  9b   Í  sp   ±   Î  sp   ä   Ä
0000f00    88  84  54  a5  12  85  55  a2  52  60  20  fa  ce  84  58  85
          88  84   T   ¥ dc2  85   U   ¢   R   `  sp   ú   Î  84   X  85
0000f10    59  a5  0d  85  5a  a5  0e  85  5b  a9  b2  85  56  a9  c2  85
           Y   ¥  cr  85   Z   ¥  so  85   [   ©   ²  85   V   ©   Â  85
0000f20    57  18  20  dd  ff  4c  5b  c5  38  a9  00  2a  48  20  3e  cf
           W can  sp   Ý   ÿ   L   [   Å   8   © nul   *   H  sp   >   Ï
0000f30    a2  52  68  20  da  ff  a0  52  20  9f  c9  95  42  60  20  bc
           ¢   R   h  sp   Ú   ÿ       R  sp  9f   É  95   B   `  sp   ¼
0000f40    c8  b4  15  ca  86  04  60  20  bc  c8  20  de  c4  20  cb  c3
           È   ´ nak   Ê  86 eot   `  sp   ¼   È  sp   Þ   Ä  sp   Ë   Ã
0000f50    20  41  cf  a2  52  20  d7  ff  4c  5b  c5  20  3e  cf  84  52
          sp   A   Ï   ¢   R  sp   ×   ÿ   L   [   Å  sp   >   Ï  84   R
0000f60    20  d4  ff  4c  7c  c9  20  5b  cf  a4  52  20  d4  ff  95  24
          sp   Ô   ÿ   L   |   É  sp   [   Ï   ¤   R  sp   Ô   ÿ  95   $
0000f70    20  d4  ff  95  33  20  d4  ff  95  42  60  20  bc  c8  20  31
          sp   Ô   ÿ  95   3  sp   Ô   ÿ  95   B   `  sp   ¼   È  sp   1
0000f80    c2  20  e1  c4  20  cb  c3  20  41  cf  a5  52  6c  16  02  20
           Â  sp   á   Ä  sp   Ë   Ã  sp   A   Ï   ¥   R   l syn stx  sp
0000f90    7b  cf  4c  5b  c5  20  7b  cf  a2  01  b5  52  20  d1  ff  e8
           {   Ï   L   [   Å  sp   {   Ï   ¢ soh   µ   R  sp   Ñ   ÿ   è
0000fa0    e0  04  90  f6  b0  ec  38  08  20  b1  ce  a2  52  28  20  ce
           à eot  90   ö   °   ì   8  bs  sp   ±   Î   ¢   R   (  sp   Î
0000fb0    ff  a6  04  4c  7c  c9  20  bc  c8  20  e4  c4  20  41  cf  20
           ÿ   ¦ eot   L   |   É  sp   ¼   È  sp   ä   Ä  sp   A   Ï  sp
0000fc0    cb  ff  4c  5b  c5  20  2c  c2  20  b1  ce  20  e4  c4  88  b1
           Ë   ÿ   L   [   Å  sp   ,   Â  sp   ±   Î  sp   ä   Ä  88   ±
0000fd0    52  84  55  a4  0f  48  20  d1  ff  68  c9  0d  f0  e4  a4  55
           R  84   U   ¤  si   H  sp   Ñ   ÿ   h   É  cr   ð   ä   ¤   U
0000fe0    c8  d0  ec  20  2c  c2  20  e1  c4  20  cb  c3  a0  00  84  55
           È   Ð   ì  sp   ,   Â  sp   á   Ä  sp   Ë   Ã     nul  84   U
0000ff0    a4  0f  20  d4  ff  a4  55  91  52  c8  c9  0d  d0  f0  f0  c2
           ¤  si  sp   Ô   ÿ   ¤   U  91   R   È   É  cr   Ð   ð   ð   Â
0001000
